target datalayout = "e-m:e-p270:32:32-p271:32:32-p272:64:64-i64:64-i128:128-f80:128-n8:16:32:64-S128"
target triple = "x86_64-pc-linux-gnu"

%"class.llvm::Register" = type { i32 }
%"class.llvm::GenericSSAContext" = type { ptr }
%"class.llvm::MachineFunction" = type <{ ptr, ptr, ptr, ptr, ptr, ptr, ptr, ptr, ptr, ptr, ptr, ptr, %"class.std::vector.39", i32, [4 x i8], %"class.llvm::BumpPtrAllocatorImpl", %"class.llvm::Recycler", %"class.llvm::ArrayRecycler", %"class.llvm::Recycler.60", %"class.llvm::iplist.61", i32, %"struct.llvm::Align", i8, i8, i8, %"class.llvm::MachineFunctionProperties", %"class.std::unique_ptr", %"class.std::vector.70", %"class.std::vector.75", %"class.std::vector.75", %"class.std::vector.80", %"class.llvm::DenseMap", %"class.llvm::DenseMap.85", %"class.llvm::DenseMap.88", %"class.std::vector.91", i8, i8, i8, i8, i8, i8, [2 x i8], i32, i32, %"class.std::vector.96", %"class.std::vector.101", %"class.std::vector.101", i32, [4 x i8], ptr, ptr, %"class.llvm::DenseMap.106", %"class.llvm::SmallVector.109", i32, [4 x i8], %"class.llvm::SmallVector.114", %"class.llvm::DenseMap.119", i8, [7 x i8] }>
%"class.std::vector.39" = type { %"struct.std::_Vector_base.40" }
%"struct.std::_Vector_base.40" = type { %"struct.std::_Vector_base<llvm::MachineBasicBlock *, std::allocator<llvm::MachineBasicBlock *>>::_Vector_impl" }
%"struct.std::_Vector_base<llvm::MachineBasicBlock *, std::allocator<llvm::MachineBasicBlock *>>::_Vector_impl" = type { %"struct.std::_Vector_base<llvm::MachineBasicBlock *, std::allocator<llvm::MachineBasicBlock *>>::_Vector_impl_data" }
%"struct.std::_Vector_base<llvm::MachineBasicBlock *, std::allocator<llvm::MachineBasicBlock *>>::_Vector_impl_data" = type { ptr, ptr, ptr }
%"class.llvm::BumpPtrAllocatorImpl" = type { ptr, ptr, %"class.llvm::SmallVector.45", %"class.llvm::SmallVector.50", i64, i64 }
%"class.llvm::SmallVector.45" = type { %"class.llvm::SmallVectorImpl.46", %"struct.llvm::SmallVectorStorage.49" }
%"class.llvm::SmallVectorImpl.46" = type { %"class.llvm::SmallVectorTemplateBase.47" }
%"class.llvm::SmallVectorTemplateBase.47" = type { %"class.llvm::SmallVectorTemplateCommon.48" }
%"class.llvm::SmallVectorTemplateCommon.48" = type { %"class.llvm::SmallVectorBase" }
%"class.llvm::SmallVectorBase" = type { ptr, i32, i32 }
%"struct.llvm::SmallVectorStorage.49" = type { [32 x i8] }
%"class.llvm::SmallVector.50" = type { %"class.llvm::SmallVectorImpl.51" }
%"class.llvm::SmallVectorImpl.51" = type { %"class.llvm::SmallVectorTemplateBase.52" }
%"class.llvm::SmallVectorTemplateBase.52" = type { %"class.llvm::SmallVectorTemplateCommon.53" }
%"class.llvm::SmallVectorTemplateCommon.53" = type { %"class.llvm::SmallVectorBase" }
%"class.llvm::Recycler" = type { ptr }
%"class.llvm::ArrayRecycler" = type { %"class.llvm::SmallVector.55" }
%"class.llvm::SmallVector.55" = type { %"class.llvm::SmallVectorImpl.56", %"struct.llvm::SmallVectorStorage.59" }
%"class.llvm::SmallVectorImpl.56" = type { %"class.llvm::SmallVectorTemplateBase.57" }
%"class.llvm::SmallVectorTemplateBase.57" = type { %"class.llvm::SmallVectorTemplateCommon.58" }
%"class.llvm::SmallVectorTemplateCommon.58" = type { %"class.llvm::SmallVectorBase" }
%"struct.llvm::SmallVectorStorage.59" = type { [64 x i8] }
%"class.llvm::Recycler.60" = type { ptr }
%"class.llvm::iplist.61" = type { %"class.llvm::iplist_impl.62" }
%"class.llvm::iplist_impl.62" = type { %"class.llvm::simple_ilist.64" }
%"class.llvm::simple_ilist.64" = type { %"class.llvm::ilist_sentinel.67" }
%"class.llvm::ilist_sentinel.67" = type { %"class.llvm::ilist_node_impl" }
%"class.llvm::ilist_node_impl" = type { %"class.llvm::ilist_node_base" }
%"class.llvm::ilist_node_base" = type { %"class.llvm::ilist_detail::node_base_prevnext" }
%"class.llvm::ilist_detail::node_base_prevnext" = type { ptr, ptr }
%"struct.llvm::Align" = type { i8 }
%"class.llvm::MachineFunctionProperties" = type { %"class.std::bitset" }
%"class.std::bitset" = type { %"struct.std::_Base_bitset" }
%"struct.std::_Base_bitset" = type { i64 }
%"class.std::unique_ptr" = type { %"struct.std::__uniq_ptr_data" }
%"struct.std::__uniq_ptr_data" = type { %"class.std::__uniq_ptr_impl" }
%"class.std::__uniq_ptr_impl" = type { %"class.std::tuple" }
%"class.std::tuple" = type { %"struct.std::_Tuple_impl" }
%"struct.std::_Tuple_impl" = type { %"struct.std::_Head_base.69" }
%"struct.std::_Head_base.69" = type { ptr }
%"class.std::vector.70" = type { %"struct.std::_Vector_base.71" }
%"struct.std::_Vector_base.71" = type { %"struct.std::_Vector_base<llvm::MCCFIInstruction, std::allocator<llvm::MCCFIInstruction>>::_Vector_impl" }
%"struct.std::_Vector_base<llvm::MCCFIInstruction, std::allocator<llvm::MCCFIInstruction>>::_Vector_impl" = type { %"struct.std::_Vector_base<llvm::MCCFIInstruction, std::allocator<llvm::MCCFIInstruction>>::_Vector_impl_data" }
%"struct.std::_Vector_base<llvm::MCCFIInstruction, std::allocator<llvm::MCCFIInstruction>>::_Vector_impl_data" = type { ptr, ptr, ptr }
%"class.std::vector.75" = type { %"struct.std::_Vector_base.76" }
%"struct.std::_Vector_base.76" = type { %"struct.std::_Vector_base<llvm::MCSymbol *, std::allocator<llvm::MCSymbol *>>::_Vector_impl" }
%"struct.std::_Vector_base<llvm::MCSymbol *, std::allocator<llvm::MCSymbol *>>::_Vector_impl" = type { %"struct.std::_Vector_base<llvm::MCSymbol *, std::allocator<llvm::MCSymbol *>>::_Vector_impl_data" }
%"struct.std::_Vector_base<llvm::MCSymbol *, std::allocator<llvm::MCSymbol *>>::_Vector_impl_data" = type { ptr, ptr, ptr }
%"class.std::vector.80" = type { %"struct.std::_Vector_base.81" }
%"struct.std::_Vector_base.81" = type { %"struct.std::_Vector_base<llvm::LandingPadInfo, std::allocator<llvm::LandingPadInfo>>::_Vector_impl" }
%"struct.std::_Vector_base<llvm::LandingPadInfo, std::allocator<llvm::LandingPadInfo>>::_Vector_impl" = type { %"struct.std::_Vector_base<llvm::LandingPadInfo, std::allocator<llvm::LandingPadInfo>>::_Vector_impl_data" }
%"struct.std::_Vector_base<llvm::LandingPadInfo, std::allocator<llvm::LandingPadInfo>>::_Vector_impl_data" = type { ptr, ptr, ptr }
%"class.llvm::DenseMap" = type <{ ptr, i32, i32, i32, [4 x i8] }>
%"class.llvm::DenseMap.85" = type <{ ptr, i32, i32, i32, [4 x i8] }>
%"class.llvm::DenseMap.88" = type <{ ptr, i32, i32, i32, [4 x i8] }>
%"class.std::vector.91" = type { %"struct.std::_Vector_base.92" }
%"struct.std::_Vector_base.92" = type { %"struct.std::_Vector_base<std::pair<llvm::MCSymbol *, llvm::MDNode *>, std::allocator<std::pair<llvm::MCSymbol *, llvm::MDNode *>>>::_Vector_impl" }
%"struct.std::_Vector_base<std::pair<llvm::MCSymbol *, llvm::MDNode *>, std::allocator<std::pair<llvm::MCSymbol *, llvm::MDNode *>>>::_Vector_impl" = type { %"struct.std::_Vector_base<std::pair<llvm::MCSymbol *, llvm::MDNode *>, std::allocator<std::pair<llvm::MCSymbol *, llvm::MDNode *>>>::_Vector_impl_data" }
%"struct.std::_Vector_base<std::pair<llvm::MCSymbol *, llvm::MDNode *>, std::allocator<std::pair<llvm::MCSymbol *, llvm::MDNode *>>>::_Vector_impl_data" = type { ptr, ptr, ptr }
%"class.std::vector.96" = type { %"struct.std::_Vector_base.97" }
%"struct.std::_Vector_base.97" = type { %"struct.std::_Vector_base<const llvm::GlobalValue *, std::allocator<const llvm::GlobalValue *>>::_Vector_impl" }
%"struct.std::_Vector_base<const llvm::GlobalValue *, std::allocator<const llvm::GlobalValue *>>::_Vector_impl" = type { %"struct.std::_Vector_base<const llvm::GlobalValue *, std::allocator<const llvm::GlobalValue *>>::_Vector_impl_data" }
%"struct.std::_Vector_base<const llvm::GlobalValue *, std::allocator<const llvm::GlobalValue *>>::_Vector_impl_data" = type { ptr, ptr, ptr }
%"class.std::vector.101" = type { %"struct.std::_Vector_base.102" }
%"struct.std::_Vector_base.102" = type { %"struct.std::_Vector_base<unsigned int, std::allocator<unsigned int>>::_Vector_impl" }
%"struct.std::_Vector_base<unsigned int, std::allocator<unsigned int>>::_Vector_impl" = type { %"struct.std::_Vector_base<unsigned int, std::allocator<unsigned int>>::_Vector_impl_data" }
%"struct.std::_Vector_base<unsigned int, std::allocator<unsigned int>>::_Vector_impl_data" = type { ptr, ptr, ptr }
%"class.llvm::DenseMap.106" = type <{ ptr, i32, i32, i32, [4 x i8] }>
%"class.llvm::SmallVector.109" = type { %"class.llvm::SmallVectorImpl.110", %"struct.llvm::SmallVectorStorage.113" }
%"class.llvm::SmallVectorImpl.110" = type { %"class.llvm::SmallVectorTemplateBase.111" }
%"class.llvm::SmallVectorTemplateBase.111" = type { %"class.llvm::SmallVectorTemplateCommon.112" }
%"class.llvm::SmallVectorTemplateCommon.112" = type { %"class.llvm::SmallVectorBase" }
%"struct.llvm::SmallVectorStorage.113" = type { [128 x i8] }
%"class.llvm::SmallVector.114" = type { %"class.llvm::SmallVectorImpl.115", %"struct.llvm::SmallVectorStorage.118" }
%"class.llvm::SmallVectorImpl.115" = type { %"class.llvm::SmallVectorTemplateBase.116" }
%"class.llvm::SmallVectorTemplateBase.116" = type { %"class.llvm::SmallVectorTemplateCommon.117" }
%"class.llvm::SmallVectorTemplateCommon.117" = type { %"class.llvm::SmallVectorBase" }
%"struct.llvm::SmallVectorStorage.118" = type { [160 x i8] }
%"class.llvm::DenseMap.119" = type <{ ptr, i32, i32, i32, [4 x i8] }>
%"class.llvm::MachineInstr" = type <{ %"class.llvm::ilist_node_with_parent.19", ptr, ptr, ptr, [3 x i8], %"class.llvm::ArrayRecycler<llvm::MachineOperand>::Capacity", i32, %"class.llvm::PointerSumType", %"class.llvm::DebugLoc", i32, i16, [2 x i8] }>
%"class.llvm::ilist_node_with_parent.19" = type { %"class.llvm::ilist_node.20" }
%"class.llvm::ilist_node.20" = type { %"class.llvm::ilist_node_impl.0" }
%"class.llvm::ilist_node_impl.0" = type { %"class.llvm::ilist_node_base.1" }
%"class.llvm::ilist_node_base.1" = type { %"class.llvm::ilist_detail::node_base_prevnext.2" }
%"class.llvm::ilist_detail::node_base_prevnext.2" = type { %"class.llvm::PointerIntPair", ptr }
%"class.llvm::PointerIntPair" = type { %"struct.llvm::detail::PunnedPointer" }
%"struct.llvm::detail::PunnedPointer" = type { [8 x i8] }
%"class.llvm::ArrayRecycler<llvm::MachineOperand>::Capacity" = type { i8 }
%"class.llvm::PointerSumType" = type { %"union.llvm::PointerSumType<llvm::MachineInstr::ExtraInfoInlineKinds, llvm::PointerSumTypeMember<0, llvm::MachineMemOperand *>, llvm::PointerSumTypeMember<1, llvm::MCSymbol *>, llvm::PointerSumTypeMember<2, llvm::MCSymbol *>, llvm::PointerSumTypeMember<3, llvm::MachineInstr::ExtraInfo *>>::StorageT" }
%"union.llvm::PointerSumType<llvm::MachineInstr::ExtraInfoInlineKinds, llvm::PointerSumTypeMember<0, llvm::MachineMemOperand *>, llvm::PointerSumTypeMember<1, llvm::MCSymbol *>, llvm::PointerSumTypeMember<2, llvm::MCSymbol *>, llvm::PointerSumTypeMember<3, llvm::MachineInstr::ExtraInfo *>>::StorageT" = type { i64 }
%"class.llvm::DebugLoc" = type { %"class.llvm::TypedTrackingMDRef" }
%"class.llvm::TypedTrackingMDRef" = type { %"class.llvm::TrackingMDRef" }
%"class.llvm::TrackingMDRef" = type { ptr }

; Function Attrs: mustprogress nounwind uwtable
define linkonce_odr hidden noundef ptr @_ZN4llvm12MachineInstr9getParentEv(ptr noundef nonnull align 8 dereferenceable(70) %0) #0 comdat align 2 {
  %2 = alloca ptr, align 8
  store ptr %0, ptr %2, align 8
  %3 = load ptr, ptr %2, align 8
  %4 = getelementptr inbounds nuw %"class.llvm::MachineInstr", ptr %3, i32 0, i32 2
  %5 = load ptr, ptr %4, align 8
  ret ptr %5
}

; Function Attrs: mustprogress nounwind uwtable
define linkonce_odr hidden noundef nonnull align 8 dereferenceable(512) ptr @_ZNK4llvm15MachineFunction10getRegInfoEv(ptr noundef nonnull align 8 dereferenceable(1041) %0) #0 comdat align 2 {
  %2 = alloca ptr, align 8
  store ptr %0, ptr %2, align 8
  %3 = load ptr, ptr %2, align 8
  %4 = getelementptr inbounds nuw %"class.llvm::MachineFunction", ptr %3, i32 0, i32 4
  %5 = load ptr, ptr %4, align 8
  ret ptr %5
}

; Function Attrs: mustprogress nounwind uwtable
define linkonce_odr hidden noundef i32 @_ZNK4llvm8RegistercvjEv(ptr noundef nonnull align 4 dereferenceable(4) %0) #0 comdat align 2 {
  %2 = alloca ptr, align 8
  store ptr %0, ptr %2, align 8
  %3 = load ptr, ptr %2, align 8
  %4 = getelementptr inbounds nuw %"class.llvm::Register", ptr %3, i32 0, i32 0
  %5 = load i32, ptr %4, align 4
  ret i32 %5
}

; Function Attrs: mustprogress nounwind uwtable
define dso_local noundef ptr @_ZNK4llvm17GenericSSAContextINS_15MachineFunctionEE11getDefBlockENS_8RegisterE(ptr noundef nonnull align 8 dereferenceable(8) %0, i32 %1) #0 align 2 {
  %3 = alloca ptr, align 8
  %4 = alloca %"class.llvm::Register", align 4
  %5 = alloca ptr, align 8
  %6 = alloca %"class.llvm::Register", align 4
  %7 = getelementptr inbounds nuw %"class.llvm::Register", ptr %4, i32 0, i32 0
  store i32 %1, ptr %7, align 4
  store ptr %0, ptr %5, align 8
  %8 = load ptr, ptr %5, align 8
  %9 = call noundef i32 @_ZNK4llvm8RegistercvjEv(ptr noundef nonnull align 4 dereferenceable(4) %4)
  %10 = icmp ne i32 %9, 0
  br i1 %10, label %12, label %11

11:                                               ; preds = %2
  store ptr null, ptr %3, align 8
  br label %20

12:                                               ; preds = %2
  %13 = getelementptr inbounds nuw %"class.llvm::GenericSSAContext", ptr %8, i32 0, i32 0
  %14 = load ptr, ptr %13, align 8
  %15 = call noundef nonnull align 8 dereferenceable(512) ptr @_ZNK4llvm15MachineFunction10getRegInfoEv(ptr noundef nonnull align 8 dereferenceable(1041) %14)
  call void @llvm.memcpy.p0.p0.i64(ptr align 4 %6, ptr align 4 %4, i64 4, i1 false)
  %16 = getelementptr inbounds nuw %"class.llvm::Register", ptr %6, i32 0, i32 0
  %17 = load i32, ptr %16, align 4
  %18 = call noundef ptr @_ZNK4llvm19MachineRegisterInfo10getVRegDefENS_8RegisterE(ptr noundef nonnull align 8 dereferenceable(512) %15, i32 %17)
  %19 = call noundef ptr @_ZN4llvm12MachineInstr9getParentEv(ptr noundef nonnull align 8 dereferenceable(70) %18)
  store ptr %19, ptr %3, align 8
  br label %20

20:                                               ; preds = %12, %11
  %21 = load ptr, ptr %3, align 8
  ret ptr %21
}