; Function Attrs: mustprogress nounwind uwtable
define dso_local noundef ptr @_ZNK4llvm17GenericSSAContextINS_15MachineFunctionEE11getDefBlockENS_8RegisterE(ptr nocapture noundef nonnull readonly align 8 dereferenceable(8) %0, i32 %1) local_unnamed_addr #0 align 2 {
  %.not = icmp eq i32 %1, 0
  br i1 %.not, label %10, label %3

3:                                                ; preds = %2
  %4 = load ptr, ptr %0, align 8
  %5 = getelementptr inbounds nuw i8, ptr %4, i64 32
  %6 = load ptr, ptr %5, align 8
  %7 = tail call noundef ptr @_ZNK4llvm19MachineRegisterInfo10getVRegDefENS_8RegisterE(ptr noundef nonnull align 8 dereferenceable(512) %6, i32 %1) #10
  %8 = getelementptr inbounds nuw i8, ptr %7, i64 24
  %9 = load ptr, ptr %8, align 8
  br label %10

10:                                               ; preds = %2, %3
  %.0 = phi ptr [ %9, %3 ], [ null, %2 ]
  ret ptr %.0
}